; Function Attrs: nounwind uwtable
define dso_local i64 @window_percent_rank(ptr noundef readonly captures(none) %0) local_unnamed_addr #0 {
  %2 = getelementptr inbounds nuw i8, ptr %0, i64 8
  %3 = load ptr, ptr %2, align 8
  %4 = tail call i64 @WinGetPartitionRowCount(ptr noundef %3) #6
  %5 = tail call i64 @WinGetCurrentPosition(ptr noundef %3) #6
  %6 = tail call ptr @WinGetPartitionLocalMemory(ptr noundef %3, i64 noundef 8) #6
  %7 = load i64, ptr %6, align 8
  %8 = icmp eq i64 %7, 0
  br i1 %8, label %9, label %10

9:                                                ; preds = %1
  store i64 1, ptr %6, align 8
  br label %rank_up.exit

10:                                               ; preds = %1
  %11 = add i64 %5, -1
  %12 = tail call zeroext i1 @WinRowsArePeers(ptr noundef %3, i64 noundef %11, i64 noundef %5) #6
  %not..i = xor i1 %12, true
  br label %rank_up.exit

rank_up.exit:                                     ; preds = %9, %10
  %.0.i = phi i1 [ false, %9 ], [ %not..i, %10 ]
  tail call void @WinSetMarkPosition(ptr noundef %3, i64 noundef %5) #6
  %13 = tail call ptr @WinGetPartitionLocalMemory(ptr noundef %3, i64 noundef 8) #6
  br i1 %.0.i, label %14, label %17

14:                                               ; preds = %rank_up.exit
  %15 = tail call i64 @WinGetCurrentPosition(ptr noundef %3) #6
  %16 = add i64 %15, 1
  store i64 %16, ptr %13, align 8
  br label %17

17:                                               ; preds = %14, %rank_up.exit
  %18 = icmp slt i64 %4, 2
  br i1 %18, label %27, label %19

19:                                               ; preds = %17
  %20 = load i64, ptr %13, align 8
  %21 = add i64 %20, -1
  %22 = sitofp i64 %21 to double
  %23 = add nsw i64 %4, -1
  %24 = uitofp nneg i64 %23 to double
  %25 = fdiv double %22, %24
  %26 = bitcast double %25 to i64
  br label %27

27:                                               ; preds = %17, %19
  %.0 = phi i64 [ %26, %19 ], [ 0, %17 ]
  ret i64 %.0
}